target datalayout = "e-m:e-p270:32:32-p271:32:32-p272:64:64-i64:64-i128:128-f80:128-n8:16:32:64-S128"
target triple = "x86_64-pc-linux-gnu"

%struct.darktable_t = type { %struct.dt_codepath_t, i32, i32, ptr, ptr, ptr, ptr, ptr, ptr, ptr, ptr, ptr, ptr, ptr, ptr, ptr, ptr, ptr, ptr, ptr, ptr, ptr, ptr, ptr, ptr, ptr, ptr, ptr, ptr, ptr, [64 x %struct.dt_pthread_mutex_t], %struct.dt_pthread_mutex_t, %struct.dt_pthread_mutex_t, %struct.dt_pthread_mutex_t, %struct.dt_pthread_mutex_t, %struct.dt_pthread_mutex_t, ptr, ptr, ptr, ptr, ptr, ptr, ptr, ptr, ptr, ptr, ptr, ptr, ptr, %struct.dt_lua_state_t, ptr, double, ptr, i32, [47 x i32], i32, i32, ptr, ptr, %struct.dt_sys_resources_t, %struct.dt_backthumb_t, %struct.dt_gimp_t }
%struct.dt_codepath_t = type { i8, [3 x i8] }
%struct.dt_pthread_mutex_t = type { %union.pthread_mutex_t }
%union.pthread_mutex_t = type { %struct.__pthread_mutex_s }
%struct.__pthread_mutex_s = type { i32, i32, i32, i32, i32, i16, i16, %struct.__pthread_internal_list }
%struct.__pthread_internal_list = type { ptr, ptr }
%struct.dt_lua_state_t = type { i32 }
%struct.dt_sys_resources_t = type { i64, i64, ptr, ptr, i32 }
%struct.dt_backthumb_t = type { double, double, i32, i32, i32, i32 }
%struct.dt_gimp_t = type { i32, ptr, ptr, i32, i32 }
%struct._GVariantBuilder = type { %union.anon }
%union.anon = type { %struct.anon }
%struct.anon = type { i64, ptr, [14 x i64] }
%struct.dt_dbus_t = type { i32, ptr, i32, i32, ptr }
%struct._GError = type { i32, i32, ptr }

@darktable = external global %struct.darktable_t, align 8
@.str = private unnamed_addr constant [6 x i8] c"a{sv}\00", align 1
@.str.1 = private unnamed_addr constant [5 x i8] c"{sv}\00", align 1
@.str.2 = private unnamed_addr constant [17 x i8] c"progress-visible\00", align 1
@.str.3 = private unnamed_addr constant [9 x i8] c"(sa{sv})\00", align 1
@.str.4 = private unnamed_addr constant [46 x i8] c"application://org.darktable.darktable.desktop\00", align 1
@.str.5 = private unnamed_addr constant [20 x i8] c"com.canonical.Unity\00", align 1
@.str.6 = private unnamed_addr constant [11 x i8] c"/darktable\00", align 1
@.str.7 = private unnamed_addr constant [34 x i8] c"com.canonical.Unity.LauncherEntry\00", align 1
@.str.8 = private unnamed_addr constant [7 x i8] c"Update\00", align 1
@.str.9 = private unnamed_addr constant [31 x i8] c"[progress_init] dbus error: %s\00", align 1

; Function Attrs: nounwind uwtable
define void @dt_control_progress_init(ptr noundef %0) #0 {
  %2 = alloca ptr, align 8
  %3 = alloca ptr, align 8
  %4 = alloca %struct._GVariantBuilder, align 8
  %5 = alloca ptr, align 8
  store ptr %0, ptr %2, align 8, !tbaa !6
  %6 = load ptr, ptr getelementptr inbounds nuw (%struct.darktable_t, ptr @darktable, i32 0, i32 26), align 8, !tbaa !11
  %7 = getelementptr inbounds nuw %struct.dt_dbus_t, ptr %6, i32 0, i32 4
  %8 = load ptr, ptr %7, align 8, !tbaa !49
  %9 = icmp ne ptr %8, null
  br i1 %9, label %10, label %42

10:                                               ; preds = %1
  call void @llvm.lifetime.start.p0(i64 8, ptr %3) #6
  store ptr null, ptr %3, align 8, !tbaa !53
  call void @llvm.lifetime.start.p0(i64 128, ptr %4) #6
  %11 = call ptr @g_variant_type_checked_(ptr noundef @.str)
  call void @g_variant_builder_init(ptr noundef %4, ptr noundef %11)
  %12 = call ptr @g_variant_new_boolean(i32 noundef 0)
  call void (ptr, ptr, ...) @g_variant_builder_add(ptr noundef %4, ptr noundef @.str.1, ptr noundef @.str.2, ptr noundef %12)
  call void @llvm.lifetime.start.p0(i64 8, ptr %5) #6
  %13 = call ptr (ptr, ...) @g_variant_new(ptr noundef @.str.3, ptr noundef @.str.4, ptr noundef %4)
  store ptr %13, ptr %5, align 8, !tbaa !55
  %14 = load ptr, ptr getelementptr inbounds nuw (%struct.darktable_t, ptr @darktable, i32 0, i32 26), align 8, !tbaa !11
  %15 = getelementptr inbounds nuw %struct.dt_dbus_t, ptr %14, i32 0, i32 4
  %16 = load ptr, ptr %15, align 8, !tbaa !49
  %17 = load ptr, ptr %5, align 8, !tbaa !55
  %18 = call i32 @g_dbus_connection_emit_signal(ptr noundef %16, ptr noundef @.str.5, ptr noundef @.str.6, ptr noundef @.str.7, ptr noundef @.str.8, ptr noundef %17, ptr noundef %3)
  %19 = load ptr, ptr %3, align 8, !tbaa !53
  %20 = icmp ne ptr %19, null
  br i1 %20, label %21, label %35

21:                                               ; preds = %10
  br label %22

22:                                               ; preds = %21
  %23 = load i32, ptr getelementptr inbounds nuw (%struct.darktable_t, ptr @darktable, i32 0, i32 2), align 8, !tbaa !57
  %24 = xor i32 %23, -1
  %25 = and i32 0, %24
  %26 = icmp ne i32 %25, 0
  br i1 %26, label %31, label %27

27:                                               ; preds = %22
  %28 = load ptr, ptr %3, align 8, !tbaa !53
  %29 = getelementptr inbounds nuw %struct._GError, ptr %28, i32 0, i32 2
  %30 = load ptr, ptr %29, align 8, !tbaa !58
  call void (ptr, ...) @dt_print_ext(ptr noundef @.str.9, ptr noundef %30)
  br label %31

31:                                               ; preds = %27, %22
  br label %32

32:                                               ; preds = %31
  br label %33

33:                                               ; preds = %32
  %34 = load ptr, ptr %3, align 8, !tbaa !53
  call void @g_error_free(ptr noundef %34)
  br label %35

35:                                               ; preds = %33, %10
  %36 = load ptr, ptr getelementptr inbounds nuw (%struct.darktable_t, ptr @darktable, i32 0, i32 26), align 8, !tbaa !11
  %37 = getelementptr inbounds nuw %struct.dt_dbus_t, ptr %36, i32 0, i32 4
  %38 = load ptr, ptr %37, align 8, !tbaa !49
  %39 = call ptr @g_type_check_instance_cast(ptr noundef %38, i64 noundef 80)
  call void @g_object_unref(ptr noundef %39)
  %40 = load ptr, ptr getelementptr inbounds nuw (%struct.darktable_t, ptr @darktable, i32 0, i32 26), align 8, !tbaa !11
  %41 = getelementptr inbounds nuw %struct.dt_dbus_t, ptr %40, i32 0, i32 4
  store ptr null, ptr %41, align 8, !tbaa !49
  call void @llvm.lifetime.end.p0(i64 8, ptr %5) #6
  call void @llvm.lifetime.end.p0(i64 128, ptr %4) #6
  call void @llvm.lifetime.end.p0(i64 8, ptr %3) #6
  br label %42

42:                                               ; preds = %35, %1
  ret void
}