; Function Attrs: nounwind uwtable
define void @dt_control_progress_init(ptr noundef readnone captures(none) %0) local_unnamed_addr #0 {
  %2 = alloca ptr, align 8
  %3 = alloca %struct._GVariantBuilder, align 8
  %4 = load ptr, ptr getelementptr inbounds nuw (i8, ptr @darktable, i64 200), align 8, !tbaa !6
  %5 = getelementptr inbounds nuw i8, ptr %4, i64 24
  %6 = load ptr, ptr %5, align 8, !tbaa !48
  %.not = icmp eq ptr %6, null
  br i1 %.not, label %27, label %7

7:                                                ; preds = %1
  call void @llvm.lifetime.start.p0(i64 8, ptr nonnull %2) #6
  store ptr null, ptr %2, align 8, !tbaa !52
  call void @llvm.lifetime.start.p0(i64 128, ptr nonnull %3) #6
  %8 = tail call ptr @g_variant_type_checked_(ptr noundef nonnull @.str) #6
  call void @g_variant_builder_init(ptr noundef nonnull %3, ptr noundef %8) #6
  %9 = call ptr @g_variant_new_boolean(i32 noundef 0) #6
  call void (ptr, ptr, ...) @g_variant_builder_add(ptr noundef nonnull %3, ptr noundef nonnull @.str.1, ptr noundef nonnull @.str.2, ptr noundef %9) #6
  %10 = call ptr (ptr, ...) @g_variant_new(ptr noundef nonnull @.str.3, ptr noundef nonnull @.str.4, ptr noundef nonnull %3) #6
  %11 = load ptr, ptr getelementptr inbounds nuw (i8, ptr @darktable, i64 200), align 8, !tbaa !6
  %12 = getelementptr inbounds nuw i8, ptr %11, i64 24
  %13 = load ptr, ptr %12, align 8, !tbaa !48
  %14 = call i32 @g_dbus_connection_emit_signal(ptr noundef %13, ptr noundef nonnull @.str.5, ptr noundef nonnull @.str.6, ptr noundef nonnull @.str.7, ptr noundef nonnull @.str.8, ptr noundef %10, ptr noundef nonnull %2) #6
  %15 = load ptr, ptr %2, align 8, !tbaa !52
  %.not1 = icmp eq ptr %15, null
  br i1 %.not1, label %20, label %16

16:                                               ; preds = %7
  %17 = getelementptr inbounds nuw i8, ptr %15, i64 8
  %18 = load ptr, ptr %17, align 8, !tbaa !54
  call void (ptr, ...) @dt_print_ext(ptr noundef nonnull @.str.9, ptr noundef %18) #6
  %19 = load ptr, ptr %2, align 8, !tbaa !52
  call void @g_error_free(ptr noundef %19) #6
  br label %20

20:                                               ; preds = %16, %7
  %21 = load ptr, ptr getelementptr inbounds nuw (i8, ptr @darktable, i64 200), align 8, !tbaa !6
  %22 = getelementptr inbounds nuw i8, ptr %21, i64 24
  %23 = load ptr, ptr %22, align 8, !tbaa !48
  %24 = call ptr @g_type_check_instance_cast(ptr noundef %23, i64 noundef 80) #6
  call void @g_object_unref(ptr noundef %24) #6
  %25 = load ptr, ptr getelementptr inbounds nuw (i8, ptr @darktable, i64 200), align 8, !tbaa !6
  %26 = getelementptr inbounds nuw i8, ptr %25, i64 24
  store ptr null, ptr %26, align 8, !tbaa !48
  call void @llvm.lifetime.end.p0(i64 128, ptr nonnull %3) #6
  call void @llvm.lifetime.end.p0(i64 8, ptr nonnull %2) #6
  br label %27

27:                                               ; preds = %20, %1
  ret void
}